---
triple:          'arm64-apple-darwin'
binary-path:     evaluate_polynomials.bin
relocations:
  - { offset: 0x446F, size: 0x8, addend: 0x0, symName: __ZNSt3__124__put_character_sequenceB8ne200100IcNS_11char_traitsIcEEEERNS_13basic_ostreamIT_T0_EES7_PKS4_m, symObjAddr: 0x1610, symBinAddr: 0x100005864, symSize: 0x1E4 }
  - { offset: 0x5C9F, size: 0x8, addend: 0x0, symName: __ZNSt3__1neB8ne200100IPKdEEbRKNS_11__wrap_iterIT_EES7_, symObjAddr: 0x118, symBinAddr: 0x10000436C, symSize: 0x30 }
  - { offset: 0x5CE2, size: 0x8, addend: 0x0, symName: __ZNSt3__1lsB8ne200100INS_11char_traitsIcEEEERNS_13basic_ostreamIcT_EES6_PKc, symObjAddr: 0x254, symBinAddr: 0x1000044A8, symSize: 0x48 }
  - { offset: 0x5D28, size: 0x8, addend: 0x0, symName: __ZNSt3__1eqB8ne200100IPKdEEbRKNS_11__wrap_iterIT_EES7_, symObjAddr: 0x1074, symBinAddr: 0x1000052C8, symSize: 0x44 }
  - { offset: 0x5D6B, size: 0x8, addend: 0x0, symName: __ZNSt3__112__to_addressB8ne200100IdEEPT_S2_, symObjAddr: 0x14CC, symBinAddr: 0x100005720, symSize: 0x14 }
  - { offset: 0x5DA0, size: 0x8, addend: 0x0, symName: __ZNSt3__119__libcpp_deallocateB8ne200100IdEEvPNS_15__type_identityIT_E4typeENS_15__element_countEm, symObjAddr: 0x1528, symBinAddr: 0x10000577C, symSize: 0x6C }
  - { offset: 0x5E17, size: 0x8, addend: 0x0, symName: __ZNSt3__124__is_overaligned_for_newB8ne200100Em, symObjAddr: 0x1594, symBinAddr: 0x1000057E8, symSize: 0x1C }
  - { offset: 0x5E43, size: 0x8, addend: 0x0, symName: __ZNSt3__124__libcpp_operator_deleteB8ne200100IJPdmSt11align_val_tEEEvDpT_, symObjAddr: 0x15B0, symBinAddr: 0x100005804, symSize: 0x34 }
  - { offset: 0x5E9C, size: 0x8, addend: 0x0, symName: __ZNSt3__124__libcpp_operator_deleteB8ne200100IJPdmEEEvDpT_, symObjAddr: 0x15E4, symBinAddr: 0x100005838, symSize: 0x2C }
  - { offset: 0x5EE2, size: 0x8, addend: 0x0, symName: __ZNSt3__116__pad_and_outputB8ne200100IcNS_11char_traitsIcEEEENS_19ostreambuf_iteratorIT_T0_EES6_PKS4_S8_S8_RNS_8ios_baseES4_, symObjAddr: 0x1834, symBinAddr: 0x100005A88, symSize: 0x214 }
  - { offset: 0x5FA6, size: 0x8, addend: 0x0, symName: __ZNSt3__112__to_addressB8ne200100IcEEPT_S2_, symObjAddr: 0x1CD8, symBinAddr: 0x100005F2C, symSize: 0x14 }
  - { offset: 0x600E, size: 0x8, addend: 0x0, symName: __ZNSt3__19use_facetB8ne200100INS_5ctypeIcEEEERKT_RKNS_6localeE, symObjAddr: 0x1F3C, symBinAddr: 0x100006190, symSize: 0x2C }
  - { offset: 0x653B, size: 0x8, addend: 0x0, symName: __ZNSt3__118__constexpr_strlenB8ne200100IcEEmPKT_, symObjAddr: 0x1FD0, symBinAddr: 0x100006224, symSize: 0x24 }
  - { offset: 0x6570, size: 0x8, addend: 0x0, symName: __ZNSt3__122__make_exception_guardB8ne200100INS_6vectorIdNS_9allocatorIdEEE16__destroy_vectorEEENS_28__exception_guard_exceptionsIT_EES7_, symObjAddr: 0x217C, symBinAddr: 0x1000063D0, symSize: 0x40 }
  - { offset: 0x65A5, size: 0x8, addend: 0x0, symName: __ZNSt3__119__allocate_at_leastB8ne200100INS_9allocatorIdEEEENS_19__allocation_resultINS_16allocator_traitsIT_E7pointerEEERS5_m, symObjAddr: 0x23E0, symBinAddr: 0x100006634, symSize: 0x40 }
  - { offset: 0x65E8, size: 0x8, addend: 0x0, symName: __ZNSt3__13minB8ne200100ImEERKT_S3_S3_, symObjAddr: 0x2434, symBinAddr: 0x100006688, symSize: 0x2C }
  - { offset: 0x6815, size: 0x8, addend: 0x0, symName: __ZNSt3__13minB8ne200100ImNS_6__lessIvvEEEERKT_S5_S5_T0_, symObjAddr: 0x2498, symBinAddr: 0x1000066EC, symSize: 0x54 }
  - { offset: 0x68B8, size: 0x8, addend: 0x0, symName: __ZNSt3__120__throw_length_errorB8ne200100EPKc, symObjAddr: 0x2538, symBinAddr: 0x10000678C, symSize: 0x64 }
  - { offset: 0x68E0, size: 0x8, addend: 0x0, symName: __ZNSt3__117__libcpp_allocateB8ne200100IdEEPT_NS_15__element_countEm, symObjAddr: 0x2698, symBinAddr: 0x1000068EC, symSize: 0x6C }
  - { offset: 0x694D, size: 0x8, addend: 0x0, symName: __ZNSt3__121__libcpp_operator_newB8ne200100IJmSt11align_val_tEEEPvDpT_, symObjAddr: 0x2704, symBinAddr: 0x100006958, symSize: 0x2C }
  - { offset: 0x6997, size: 0x8, addend: 0x0, symName: __ZNSt3__121__libcpp_operator_newB8ne200100IJmEEEPvDpT_, symObjAddr: 0x2730, symBinAddr: 0x100006984, symSize: 0x24 }
  - { offset: 0x69CE, size: 0x8, addend: 0x0, symName: __ZNSt3__130__uninitialized_allocator_copyB8ne200100INS_9allocatorIdEEPKdS4_PdEET2_RT_T0_T1_S6_, symObjAddr: 0x2790, symBinAddr: 0x1000069E4, symSize: 0x80 }
  - { offset: 0x6A6B, size: 0x8, addend: 0x0, symName: __ZNSt3__114__unwrap_rangeB8ne200100IPKdS2_EENS_4pairIT0_S4_EET_S6_, symObjAddr: 0x2880, symBinAddr: 0x100006AD4, symSize: 0x60 }
  - { offset: 0x6AB7, size: 0x8, addend: 0x0, symName: __ZNSt3__135__uninitialized_allocator_copy_implB8ne200100INS_9allocatorIdEEPKdS4_PdEET2_RT_T0_T1_S6_, symObjAddr: 0x28E0, symBinAddr: 0x100006B34, symSize: 0xF0 }
  - { offset: 0x6B55, size: 0x8, addend: 0x0, symName: __ZNSt3__113__unwrap_iterB8ne200100IPdNS_18__unwrap_iter_implIS1_Lb1EEETnNS_9enable_ifIXsr21is_copy_constructibleIT_EE5valueEiE4typeELi0EEEDTclsrT0_8__unwrapclsr3stdE7declvalIS5_EEEES5_, symObjAddr: 0x29D0, symBinAddr: 0x100006C24, symSize: 0x24 }
  - { offset: 0x6B99, size: 0x8, addend: 0x0, symName: __ZNSt3__113__rewrap_iterB8ne200100IPdS1_NS_18__unwrap_iter_implIS1_Lb1EEEEET_S4_T0_, symObjAddr: 0x29F4, symBinAddr: 0x100006C48, symSize: 0x3C }
  - { offset: 0x6BEE, size: 0x8, addend: 0x0, symName: __ZNSt3__19make_pairB8ne200100IPKdS2_EENS_4pairINS_18__unwrap_referenceIu7__decayIT_EE4typeENS4_Iu7__decayIT0_EE4typeEEEOS5_OS9_, symObjAddr: 0x2A30, symBinAddr: 0x100006C84, symSize: 0x38 }
  - { offset: 0x6C3D, size: 0x8, addend: 0x0, symName: __ZNSt3__113__unwrap_iterB8ne200100IPKdNS_18__unwrap_iter_implIS2_Lb1EEETnNS_9enable_ifIXsr21is_copy_constructibleIT_EE5valueEiE4typeELi0EEEDTclsrT0_8__unwrapclsr3stdE7declvalIS6_EEEES6_, symObjAddr: 0x2A68, symBinAddr: 0x100006CBC, symSize: 0x24 }
  - { offset: 0x6DB3, size: 0x8, addend: 0x0, symName: __ZNSt3__112__to_addressB8ne200100IKdEEPT_S3_, symObjAddr: 0x2B20, symBinAddr: 0x100006D74, symSize: 0x14 }
  - { offset: 0x6DE8, size: 0x8, addend: 0x0, symName: __ZNSt3__122__make_exception_guardB8ne200100INS_29_AllocatorDestroyRangeReverseINS_9allocatorIdEEPdEEEENS_28__exception_guard_exceptionsIT_EES7_, symObjAddr: 0x2B34, symBinAddr: 0x100006D88, symSize: 0x4C }
  - { offset: 0x6E1E, size: 0x8, addend: 0x0, symName: __ZNSt3__119__allocator_destroyB8ne200100INS_9allocatorIdEENS_16reverse_iteratorIPdEES5_EEvRT_T0_T1_, symObjAddr: 0x2DBC, symBinAddr: 0x100007010, symSize: 0x70 }
  - { offset: 0x6E81, size: 0x8, addend: 0x0, symName: __ZNSt3__1neB8ne200100IPdS1_EEbRKNS_16reverse_iteratorIT_EERKNS2_IT0_EE, symObjAddr: 0x2E60, symBinAddr: 0x1000070B4, symSize: 0x44 }
  - { offset: 0x6ECD, size: 0x8, addend: 0x0, symName: __ZNSt3__112__to_addressB8ne200100INS_16reverse_iteratorIPdEETnNS_9enable_ifIXsr4_AndINS_8is_classIT_EENS_15_IsFancyPointerIS6_EEEE5valueEiE4typeELi0EEEu7__decayIDTclsr19__to_address_helperIS6_EE6__callclsr3stdE7declvalIRKS6_EEEEESD_, symObjAddr: 0x2EA4, symBinAddr: 0x1000070F8, symSize: 0x24 }
  - { offset: 0x7E69, size: 0x8, addend: 0x0, symName: __ZSt28__throw_bad_array_new_lengthB8ne200100v, symObjAddr: 0x2664, symBinAddr: 0x1000068B8, symSize: 0x34 }
  - { offset: 0x8351, size: 0x8, addend: 0x0, symName: __Z19evaluate_polynomialRKNSt3__16vectorIdNS_9allocatorIdEEEEd, symObjAddr: 0x0, symBinAddr: 0x100004254, symSize: 0x98 }
  - { offset: 0x83E7, size: 0x8, addend: 0x0, symName: __ZNKSt3__16vectorIdNS_9allocatorIdEEE5beginB8ne200100Ev, symObjAddr: 0x98, symBinAddr: 0x1000042EC, symSize: 0x40 }
  - { offset: 0x840B, size: 0x8, addend: 0x0, symName: __ZNKSt3__16vectorIdNS_9allocatorIdEEE3endB8ne200100Ev, symObjAddr: 0xD8, symBinAddr: 0x10000432C, symSize: 0x40 }
  - { offset: 0x842F, size: 0x8, addend: 0x0, symName: __ZNKSt3__111__wrap_iterIPKdEdeB8ne200100Ev, symObjAddr: 0x148, symBinAddr: 0x10000439C, symSize: 0x18 }
  - { offset: 0x8453, size: 0x8, addend: 0x0, symName: __ZNSt3__111__wrap_iterIPKdEppB8ne200100Ev, symObjAddr: 0x160, symBinAddr: 0x1000043B4, symSize: 0x20 }
  - { offset: 0x8477, size: 0x8, addend: 0x0, symName: __Z21test_empty_polynomialv, symObjAddr: 0x180, symBinAddr: 0x1000043D4, symSize: 0xA8 }
  - { offset: 0x84A0, size: 0x8, addend: 0x0, symName: __ZNSt3__16vectorIdNS_9allocatorIdEEEC1B8ne200100Ev, symObjAddr: 0x228, symBinAddr: 0x10000447C, symSize: 0x2C }
  - { offset: 0x84C9, size: 0x8, addend: 0x0, symName: __ZNSt3__16vectorIdNS_9allocatorIdEEED1B8ne200100Ev, symObjAddr: 0x29C, symBinAddr: 0x1000044F0, symSize: 0x2C }
  - { offset: 0x84F1, size: 0x8, addend: 0x0, symName: __Z24test_constant_polynomialv, symObjAddr: 0x2C8, symBinAddr: 0x10000451C, symSize: 0x190 }
  - { offset: 0x851A, size: 0x8, addend: 0x0, symName: __ZNSt3__16vectorIdNS_9allocatorIdEEEC1B8ne200100ESt16initializer_listIdE, symObjAddr: 0x458, symBinAddr: 0x1000046AC, symSize: 0x3C }
  - { offset: 0x8551, size: 0x8, addend: 0x0, symName: __Z22test_linear_polynomialv, symObjAddr: 0x494, symBinAddr: 0x1000046E8, symSize: 0x1E4 }
  - { offset: 0x8579, size: 0x8, addend: 0x0, symName: __Z25test_quadratic_polynomialv, symObjAddr: 0x678, symBinAddr: 0x1000048CC, symSize: 0x1E0 }
  - { offset: 0x85A1, size: 0x8, addend: 0x0, symName: __Z21test_cubic_polynomialv, symObjAddr: 0x858, symBinAddr: 0x100004AAC, symSize: 0x1A0 }
  - { offset: 0x85C9, size: 0x8, addend: 0x0, symName: __Z23test_quartic_polynomialv, symObjAddr: 0x9F8, symBinAddr: 0x100004C4C, symSize: 0x1E4 }
  - { offset: 0x85F1, size: 0x8, addend: 0x0, symName: __Z23test_quintic_polynomialv, symObjAddr: 0xBDC, symBinAddr: 0x100004E30, symSize: 0x19C }
  - { offset: 0x8619, size: 0x8, addend: 0x0, symName: __Z15test_negative_xv, symObjAddr: 0xD78, symBinAddr: 0x100004FCC, symSize: 0x150 }
  - { offset: 0x8641, size: 0x8, addend: 0x0, symName: __Z28test_fractional_coefficientsv, symObjAddr: 0xEC8, symBinAddr: 0x10000511C, symSize: 0x14C }
  - { offset: 0x866A, size: 0x8, addend: 0x0, symName: _main, symObjAddr: 0x1014, symBinAddr: 0x100005268, symSize: 0x60 }
  - { offset: 0x8683, size: 0x8, addend: 0x0, symName: __ZNKSt3__111__wrap_iterIPKdE4baseB8ne200100Ev, symObjAddr: 0x10B8, symBinAddr: 0x10000530C, symSize: 0x18 }
  - { offset: 0x86A7, size: 0x8, addend: 0x0, symName: __ZNKSt3__16vectorIdNS_9allocatorIdEEE11__make_iterB8ne200100EPKd, symObjAddr: 0x10D0, symBinAddr: 0x100005324, symSize: 0x30 }
  - { offset: 0x86DB, size: 0x8, addend: 0x0, symName: __ZNSt3__16vectorIdNS_9allocatorIdEEE26__add_alignment_assumptionB8ne200100IPdTnNS_9enable_ifIXsr10is_pointerIT_EE5valueEiE4typeELi0EEES5_S7_, symObjAddr: 0x1100, symBinAddr: 0x100005354, symSize: 0x14 }
  - { offset: 0x870E, size: 0x8, addend: 0x0, symName: __ZNSt3__111__wrap_iterIPKdEC1B8ne200100ES2_, symObjAddr: 0x1114, symBinAddr: 0x100005368, symSize: 0x34 }
  - { offset: 0x8745, size: 0x8, addend: 0x0, symName: __ZNSt3__111__wrap_iterIPKdEC2B8ne200100ES2_, symObjAddr: 0x1148, symBinAddr: 0x10000539C, symSize: 0x20 }
  - { offset: 0x877C, size: 0x8, addend: 0x0, symName: __ZNSt3__16vectorIdNS_9allocatorIdEEEC2B8ne200100Ev, symObjAddr: 0x1168, symBinAddr: 0x1000053BC, symSize: 0x38 }
  - { offset: 0x87A5, size: 0x8, addend: 0x0, symName: __ZNSt3__19allocatorIdEC1B8ne200100Ev, symObjAddr: 0x11A0, symBinAddr: 0x1000053F4, symSize: 0x2C }
  - { offset: 0x87CE, size: 0x8, addend: 0x0, symName: __ZNSt3__19allocatorIdEC2B8ne200100Ev, symObjAddr: 0x11CC, symBinAddr: 0x100005420, symSize: 0x2C }
  - { offset: 0x87F7, size: 0x8, addend: 0x0, symName: __ZNSt3__116__non_trivial_ifILb1ENS_9allocatorIdEEEC2B8ne200100Ev, symObjAddr: 0x11F8, symBinAddr: 0x10000544C, symSize: 0x14 }
  - { offset: 0x8820, size: 0x8, addend: 0x0, symName: __ZNSt3__16vectorIdNS_9allocatorIdEEED2B8ne200100Ev, symObjAddr: 0x120C, symBinAddr: 0x100005460, symSize: 0x44 }
  - { offset: 0x8849, size: 0x8, addend: 0x0, symName: __ZNSt3__16vectorIdNS_9allocatorIdEEE16__destroy_vectorC1B8ne200100ERS3_, symObjAddr: 0x1250, symBinAddr: 0x1000054A4, symSize: 0x34 }
  - { offset: 0x887F, size: 0x8, addend: 0x0, symName: __ZNSt3__16vectorIdNS_9allocatorIdEEE16__destroy_vectorclB8ne200100Ev, symObjAddr: 0x1294, symBinAddr: 0x1000054E8, symSize: 0x80 }
  - { offset: 0x88A4, size: 0x8, addend: 0x0, symName: __ZNSt3__16vectorIdNS_9allocatorIdEEE16__destroy_vectorC2B8ne200100ERS3_, symObjAddr: 0x1314, symBinAddr: 0x100005568, symSize: 0x20 }
  - { offset: 0x88DA, size: 0x8, addend: 0x0, symName: __ZNSt3__16vectorIdNS_9allocatorIdEEE5clearB8ne200100Ev, symObjAddr: 0x1334, symBinAddr: 0x100005588, symSize: 0x48 }
  - { offset: 0x890D, size: 0x8, addend: 0x0, symName: __ZNKSt3__16vectorIdNS_9allocatorIdEEE17__annotate_deleteB8ne200100Ev, symObjAddr: 0x137C, symBinAddr: 0x1000055D0, symSize: 0x10 }
  - { offset: 0x8932, size: 0x8, addend: 0x0, symName: __ZNSt3__116allocator_traitsINS_9allocatorIdEEE10deallocateB8ne200100ERS2_Pdm, symObjAddr: 0x138C, symBinAddr: 0x1000055E0, symSize: 0x34 }
  - { offset: 0x8973, size: 0x8, addend: 0x0, symName: __ZNKSt3__16vectorIdNS_9allocatorIdEEE8capacityB8ne200100Ev, symObjAddr: 0x13C0, symBinAddr: 0x100005614, symSize: 0x28 }
  - { offset: 0x8997, size: 0x8, addend: 0x0, symName: __ZNKSt3__16vectorIdNS_9allocatorIdEEE4sizeB8ne200100Ev, symObjAddr: 0x13E8, symBinAddr: 0x10000563C, symSize: 0x28 }
  - { offset: 0x89BB, size: 0x8, addend: 0x0, symName: __ZNSt3__16vectorIdNS_9allocatorIdEEE22__base_destruct_at_endB8ne200100EPd, symObjAddr: 0x1410, symBinAddr: 0x100005664, symSize: 0x7C }
  - { offset: 0x89FD, size: 0x8, addend: 0x0, symName: __ZNKSt3__16vectorIdNS_9allocatorIdEEE17__annotate_shrinkB8ne200100Em, symObjAddr: 0x148C, symBinAddr: 0x1000056E0, symSize: 0x14 }
  - { offset: 0x8A31, size: 0x8, addend: 0x0, symName: __ZNSt3__116allocator_traitsINS_9allocatorIdEEE7destroyB8ne200100IdTnNS_9enable_ifIXsr13__has_destroyIS2_PT_EE5valueEiE4typeELi0EEEvRS2_S7_, symObjAddr: 0x14A0, symBinAddr: 0x1000056F4, symSize: 0x2C }
  - { offset: 0x8A72, size: 0x8, addend: 0x0, symName: __ZNSt3__19allocatorIdE7destroyB8ne200100EPd, symObjAddr: 0x14E0, symBinAddr: 0x100005734, symSize: 0x14 }
  - { offset: 0x8AA4, size: 0x8, addend: 0x0, symName: __ZNSt3__19allocatorIdE10deallocateB8ne200100EPdm, symObjAddr: 0x14F4, symBinAddr: 0x100005748, symSize: 0x34 }
  - { offset: 0x8AE5, size: 0x8, addend: 0x0, symName: __ZNSt3__111char_traitsIcE6lengthB8ne200100EPKc, symObjAddr: 0x17F4, symBinAddr: 0x100005A48, symSize: 0x24 }
  - { offset: 0x8B25, size: 0x8, addend: 0x0, symName: __ZNKSt3__113basic_ostreamIcNS_11char_traitsIcEEE6sentrycvbB8ne200100Ev, symObjAddr: 0x1818, symBinAddr: 0x100005A6C, symSize: 0x1C }
  - { offset: 0x8B4A, size: 0x8, addend: 0x0, symName: __ZNSt3__119ostreambuf_iteratorIcNS_11char_traitsIcEEEC1B8ne200100ERNS_13basic_ostreamIcS2_EE, symObjAddr: 0x1A48, symBinAddr: 0x100005C9C, symSize: 0x34 }
  - { offset: 0x8B81, size: 0x8, addend: 0x0, symName: __ZNKSt3__18ios_base5flagsB8ne200100Ev, symObjAddr: 0x1A7C, symBinAddr: 0x100005CD0, symSize: 0x18 }
  - { offset: 0x8BA7, size: 0x8, addend: 0x0, symName: __ZNKSt3__19basic_iosIcNS_11char_traitsIcEEE4fillB8ne200100Ev, symObjAddr: 0x1A94, symBinAddr: 0x100005CE8, symSize: 0x64 }
  - { offset: 0x8BCB, size: 0x8, addend: 0x0, symName: __ZNKSt3__119ostreambuf_iteratorIcNS_11char_traitsIcEEE6failedB8ne200100Ev, symObjAddr: 0x1AF8, symBinAddr: 0x100005D4C, symSize: 0x20 }
  - { offset: 0x8BEF, size: 0x8, addend: 0x0, symName: __ZNSt3__19basic_iosIcNS_11char_traitsIcEEE8setstateB8ne200100Ej, symObjAddr: 0x1B18, symBinAddr: 0x100005D6C, symSize: 0x2C }
  - { offset: 0x8C23, size: 0x8, addend: 0x0, symName: __ZNKSt3__18ios_base5widthB8ne200100Ev, symObjAddr: 0x1B44, symBinAddr: 0x100005D98, symSize: 0x18 }
  - { offset: 0x8C49, size: 0x8, addend: 0x0, symName: __ZNSt3__115basic_streambufIcNS_11char_traitsIcEEE5sputnB8ne200100EPKcl, symObjAddr: 0x1B5C, symBinAddr: 0x100005DB0, symSize: 0x3C }
  - { offset: 0x8C8A, size: 0x8, addend: 0x0, symName: __ZNSt3__112basic_stringIcNS_11char_traitsIcEENS_9allocatorIcEEEC1B8ne200100Emc, symObjAddr: 0x1B98, symBinAddr: 0x100005DEC, symSize: 0x3C }
  - { offset: 0x8CD0, size: 0x8, addend: 0x0, symName: __ZNSt3__112basic_stringIcNS_11char_traitsIcEENS_9allocatorIcEEE4dataB8ne200100Ev, symObjAddr: 0x1BD4, symBinAddr: 0x100005E28, symSize: 0x28 }
  - { offset: 0x8CF5, size: 0x8, addend: 0x0, symName: __ZNSt3__18ios_base5widthB8ne200100El, symObjAddr: 0x1BFC, symBinAddr: 0x100005E50, symSize: 0x2C }
  - { offset: 0x8D3A, size: 0x8, addend: 0x0, symName: __ZNSt3__112basic_stringIcNS_11char_traitsIcEENS_9allocatorIcEEEC2B8ne200100Emc, symObjAddr: 0x1C28, symBinAddr: 0x100005E7C, symSize: 0x44 }
  - { offset: 0x8D81, size: 0x8, addend: 0x0, symName: __ZNSt3__19allocatorIcEC1B8ne200100Ev, symObjAddr: 0x1C6C, symBinAddr: 0x100005EC0, symSize: 0x2C }
  - { offset: 0x8DAA, size: 0x8, addend: 0x0, symName: __ZNSt3__19allocatorIcEC2B8ne200100Ev, symObjAddr: 0x1C98, symBinAddr: 0x100005EEC, symSize: 0x2C }
  - { offset: 0x8DD3, size: 0x8, addend: 0x0, symName: __ZNSt3__116__non_trivial_ifILb1ENS_9allocatorIcEEEC2B8ne200100Ev, symObjAddr: 0x1CC4, symBinAddr: 0x100005F18, symSize: 0x14 }
  - { offset: 0x8DFB, size: 0x8, addend: 0x0, symName: __ZNSt3__112basic_stringIcNS_11char_traitsIcEENS_9allocatorIcEEE13__get_pointerB8ne200100Ev, symObjAddr: 0x1CEC, symBinAddr: 0x100005F40, symSize: 0x54 }
  - { offset: 0x8E1F, size: 0x8, addend: 0x0, symName: __ZNKSt3__112basic_stringIcNS_11char_traitsIcEENS_9allocatorIcEEE9__is_longB8ne200100Ev, symObjAddr: 0x1D40, symBinAddr: 0x100005F94, symSize: 0x24 }
  - { offset: 0x8E43, size: 0x8, addend: 0x0, symName: __ZNSt3__112basic_stringIcNS_11char_traitsIcEENS_9allocatorIcEEE18__get_long_pointerB8ne200100Ev, symObjAddr: 0x1D64, symBinAddr: 0x100005FB8, symSize: 0x18 }
  - { offset: 0x8E67, size: 0x8, addend: 0x0, symName: __ZNSt3__112basic_stringIcNS_11char_traitsIcEENS_9allocatorIcEEE19__get_short_pointerB8ne200100Ev, symObjAddr: 0x1D7C, symBinAddr: 0x100005FD0, symSize: 0x24 }
  - { offset: 0x8E8C, size: 0x8, addend: 0x0, symName: __ZNSt3__114pointer_traitsIPcE10pointer_toB8ne200100ERc, symObjAddr: 0x1DA0, symBinAddr: 0x100005FF4, symSize: 0x14 }
  - { offset: 0x8EAF, size: 0x8, addend: 0x0, symName: __ZNSt3__119ostreambuf_iteratorIcNS_11char_traitsIcEEEC2B8ne200100ERNS_13basic_ostreamIcS2_EE, symObjAddr: 0x1DB4, symBinAddr: 0x100006008, symSize: 0x54 }
  - { offset: 0x8EE5, size: 0x8, addend: 0x0, symName: __ZNKSt3__19basic_iosIcNS_11char_traitsIcEEE5rdbufB8ne200100Ev, symObjAddr: 0x1E08, symBinAddr: 0x10000605C, symSize: 0x24 }
  - { offset: 0x8F09, size: 0x8, addend: 0x0, symName: __ZNKSt3__18ios_base5rdbufB8ne200100Ev, symObjAddr: 0x1E2C, symBinAddr: 0x100006080, symSize: 0x18 }
  - { offset: 0x8F2D, size: 0x8, addend: 0x0, symName: __ZNKSt3__118_SentinelValueFillINS_11char_traitsIcEEE8__is_setB8ne200100Ev, symObjAddr: 0x1E44, symBinAddr: 0x100006098, symSize: 0x38 }
  - { offset: 0x8F51, size: 0x8, addend: 0x0, symName: __ZNKSt3__19basic_iosIcNS_11char_traitsIcEEE5widenB8ne200100Ec, symObjAddr: 0x1E7C, symBinAddr: 0x1000060D0, symSize: 0x80 }
  - { offset: 0x8F84, size: 0x8, addend: 0x0, symName: __ZNSt3__118_SentinelValueFillINS_11char_traitsIcEEEaSB8ne200100Ei, symObjAddr: 0x1EFC, symBinAddr: 0x100006150, symSize: 0x20 }
  - { offset: 0x8FB7, size: 0x8, addend: 0x0, symName: __ZNKSt3__118_SentinelValueFillINS_11char_traitsIcEEE5__getB8ne200100Ev, symObjAddr: 0x1F1C, symBinAddr: 0x100006170, symSize: 0x18 }
  - { offset: 0x8FDC, size: 0x8, addend: 0x0, symName: __ZNSt3__111char_traitsIcE3eofB8ne200100Ev, symObjAddr: 0x1F34, symBinAddr: 0x100006188, symSize: 0x8 }
  - { offset: 0x9031, size: 0x8, addend: 0x0, symName: __ZNKSt3__15ctypeIcE5widenB8ne200100Ec, symObjAddr: 0x1F68, symBinAddr: 0x1000061BC, symSize: 0x34 }
  - { offset: 0x9065, size: 0x8, addend: 0x0, symName: __ZNSt3__18ios_base8setstateB8ne200100Ej, symObjAddr: 0x1F9C, symBinAddr: 0x1000061F0, symSize: 0x34 }
  - { offset: 0x909B, size: 0x8, addend: 0x0, symName: __ZNSt3__16vectorIdNS_9allocatorIdEEEC2B8ne200100ESt16initializer_listIdE, symObjAddr: 0x1FF4, symBinAddr: 0x100006248, symSize: 0x84 }
  - { offset: 0x90D2, size: 0x8, addend: 0x0, symName: __ZNSt3__16vectorIdNS_9allocatorIdEEE16__init_with_sizeB8ne200100IPKdS6_EEvT_T0_m, symObjAddr: 0x2078, symBinAddr: 0x1000062CC, symSize: 0xB4 }
  - { offset: 0x9144, size: 0x8, addend: 0x0, symName: __ZNKSt16initializer_listIdE5beginB8ne200100Ev, symObjAddr: 0x212C, symBinAddr: 0x100006380, symSize: 0x18 }
  - { offset: 0x9168, size: 0x8, addend: 0x0, symName: __ZNKSt16initializer_listIdE3endB8ne200100Ev, symObjAddr: 0x2144, symBinAddr: 0x100006398, symSize: 0x20 }
  - { offset: 0x918C, size: 0x8, addend: 0x0, symName: __ZNKSt16initializer_listIdE4sizeB8ne200100Ev, symObjAddr: 0x2164, symBinAddr: 0x1000063B8, symSize: 0x18 }
  - { offset: 0x91B0, size: 0x8, addend: 0x0, symName: __ZNSt3__16vectorIdNS_9allocatorIdEEE11__vallocateB8ne200100Em, symObjAddr: 0x21BC, symBinAddr: 0x100006410, symSize: 0x8C }
  - { offset: 0x91F2, size: 0x8, addend: 0x0, symName: __ZNSt3__16vectorIdNS_9allocatorIdEEE18__construct_at_endIPKdS6_EEvT_T0_m, symObjAddr: 0x2248, symBinAddr: 0x10000649C, symSize: 0x88 }
  - { offset: 0x9264, size: 0x8, addend: 0x0, symName: __ZNSt3__128__exception_guard_exceptionsINS_6vectorIdNS_9allocatorIdEEE16__destroy_vectorEE10__completeB8ne200100Ev, symObjAddr: 0x22D0, symBinAddr: 0x100006524, symSize: 0x1C }
  - { offset: 0x9289, size: 0x8, addend: 0x0, symName: __ZNSt3__128__exception_guard_exceptionsINS_6vectorIdNS_9allocatorIdEEE16__destroy_vectorEED1B8ne200100Ev, symObjAddr: 0x22EC, symBinAddr: 0x100006540, symSize: 0x2C }
  - { offset: 0x92B2, size: 0x8, addend: 0x0, symName: __ZNSt3__128__exception_guard_exceptionsINS_6vectorIdNS_9allocatorIdEEE16__destroy_vectorEEC1B8ne200100ES5_, symObjAddr: 0x2318, symBinAddr: 0x10000656C, symSize: 0x34 }
  - { offset: 0x92E9, size: 0x8, addend: 0x0, symName: __ZNSt3__128__exception_guard_exceptionsINS_6vectorIdNS_9allocatorIdEEE16__destroy_vectorEEC2B8ne200100ES5_, symObjAddr: 0x234C, symBinAddr: 0x1000065A0, symSize: 0x24 }
  - { offset: 0x931F, size: 0x8, addend: 0x0, symName: __ZNKSt3__16vectorIdNS_9allocatorIdEEE8max_sizeB8ne200100Ev, symObjAddr: 0x2370, symBinAddr: 0x1000065C4, symSize: 0x5C }
  - { offset: 0x9344, size: 0x8, addend: 0x0, symName: __ZNSt3__16vectorIdNS_9allocatorIdEEE20__throw_length_errorB8ne200100Ev, symObjAddr: 0x23CC, symBinAddr: 0x100006620, symSize: 0x14 }
  - { offset: 0x9357, size: 0x8, addend: 0x0, symName: __ZNKSt3__16vectorIdNS_9allocatorIdEEE14__annotate_newB8ne200100Em, symObjAddr: 0x2420, symBinAddr: 0x100006674, symSize: 0x14 }
  - { offset: 0x9395, size: 0x8, addend: 0x0, symName: __ZNSt3__116allocator_traitsINS_9allocatorIdEEE8max_sizeB8ne200100IS2_TnNS_9enable_ifIXsr14__has_max_sizeIKT_EE5valueEiE4typeELi0EEEmRKS2_, symObjAddr: 0x2460, symBinAddr: 0x1000066B4, symSize: 0x24 }
  - { offset: 0x93C8, size: 0x8, addend: 0x0, symName: __ZNSt3__114numeric_limitsIlE3maxB8ne200100Ev, symObjAddr: 0x2484, symBinAddr: 0x1000066D8, symSize: 0x14 }
  - { offset: 0x93EF, size: 0x8, addend: 0x0, symName: __ZNKSt3__16__lessIvvEclB8ne200100ImmEEbRKT_RKT0_, symObjAddr: 0x24EC, symBinAddr: 0x100006740, symSize: 0x30 }
  - { offset: 0x9441, size: 0x8, addend: 0x0, symName: __ZNKSt3__19allocatorIdE8max_sizeB8ne200100Ev, symObjAddr: 0x251C, symBinAddr: 0x100006770, symSize: 0x14 }
  - { offset: 0x9466, size: 0x8, addend: 0x0, symName: __ZNSt3__123__libcpp_numeric_limitsIlLb1EE3maxB8ne200100Ev, symObjAddr: 0x2530, symBinAddr: 0x100006784, symSize: 0x8 }
  - { offset: 0x947A, size: 0x8, addend: 0x0, symName: __ZNSt12length_errorC1B8ne200100EPKc, symObjAddr: 0x259C, symBinAddr: 0x1000067F0, symSize: 0x34 }
  - { offset: 0x94B1, size: 0x8, addend: 0x0, symName: __ZNSt12length_errorC2B8ne200100EPKc, symObjAddr: 0x25D0, symBinAddr: 0x100006824, symSize: 0x44 }
  - { offset: 0x94E7, size: 0x8, addend: 0x0, symName: __ZNSt3__19allocatorIdE8allocateB8ne200100Em, symObjAddr: 0x2614, symBinAddr: 0x100006868, symSize: 0x50 }
  - { offset: 0x9533, size: 0x8, addend: 0x0, symName: __ZNSt3__16vectorIdNS_9allocatorIdEEE21_ConstructTransactionC1B8ne200100ERS3_m, symObjAddr: 0x2754, symBinAddr: 0x1000069A8, symSize: 0x3C }
  - { offset: 0x957A, size: 0x8, addend: 0x0, symName: __ZNSt3__16vectorIdNS_9allocatorIdEEE21_ConstructTransactionD1B8ne200100Ev, symObjAddr: 0x2810, symBinAddr: 0x100006A64, symSize: 0x2C }
  - { offset: 0x95A3, size: 0x8, addend: 0x0, symName: __ZNSt3__16vectorIdNS_9allocatorIdEEE21_ConstructTransactionC2B8ne200100ERS3_m, symObjAddr: 0x283C, symBinAddr: 0x100006A90, symSize: 0x44 }
  - { offset: 0x9608, size: 0x8, addend: 0x0, symName: __ZNSt3__14pairIPKdS2_EC1B8ne200100IS2_S2_TnNS_9enable_ifIXclsr10_CheckArgsE23__is_pair_constructibleIT_T0_EEEiE4typeELi0EEEOS6_OS7_, symObjAddr: 0x2A8C, symBinAddr: 0x100006CE0, symSize: 0x3C }
  - { offset: 0x9665, size: 0x8, addend: 0x0, symName: __ZNSt3__14pairIPKdS2_EC2B8ne200100IS2_S2_TnNS_9enable_ifIXclsr10_CheckArgsE23__is_pair_constructibleIT_T0_EEEiE4typeELi0EEEOS6_OS7_, symObjAddr: 0x2AC8, symBinAddr: 0x100006D1C, symSize: 0x34 }
  - { offset: 0x96C2, size: 0x8, addend: 0x0, symName: __ZNSt3__118__unwrap_iter_implIPKdLb1EE8__unwrapB8ne200100ES2_, symObjAddr: 0x2AFC, symBinAddr: 0x100006D50, symSize: 0x24 }
  - { offset: 0x96E5, size: 0x8, addend: 0x0, symName: __ZNSt3__129_AllocatorDestroyRangeReverseINS_9allocatorIdEEPdEC1B8ne200100ERS2_RS3_S6_, symObjAddr: 0x2B80, symBinAddr: 0x100006DD4, symSize: 0x44 }
  - { offset: 0x973B, size: 0x8, addend: 0x0, symName: __ZNSt3__116allocator_traitsINS_9allocatorIdEEE9constructB8ne200100IdJRKdETnNS_9enable_ifIXsr15__has_constructIS2_PT_DpT0_EE5valueEiE4typeELi0EEEvRS2_S9_DpOSA_, symObjAddr: 0x2BC4, symBinAddr: 0x100006E18, symSize: 0x34 }
  - { offset: 0x9796, size: 0x8, addend: 0x0, symName: __ZNSt3__128__exception_guard_exceptionsINS_29_AllocatorDestroyRangeReverseINS_9allocatorIdEEPdEEE10__completeB8ne200100Ev, symObjAddr: 0x2BF8, symBinAddr: 0x100006E4C, symSize: 0x1C }
  - { offset: 0x97BB, size: 0x8, addend: 0x0, symName: __ZNSt3__128__exception_guard_exceptionsINS_29_AllocatorDestroyRangeReverseINS_9allocatorIdEEPdEEED1B8ne200100Ev, symObjAddr: 0x2C14, symBinAddr: 0x100006E68, symSize: 0x2C }
  - { offset: 0x97E4, size: 0x8, addend: 0x0, symName: __ZNSt3__128__exception_guard_exceptionsINS_29_AllocatorDestroyRangeReverseINS_9allocatorIdEEPdEEEC1B8ne200100ES5_, symObjAddr: 0x2C40, symBinAddr: 0x100006E94, symSize: 0x34 }
  - { offset: 0x981C, size: 0x8, addend: 0x0, symName: __ZNSt3__128__exception_guard_exceptionsINS_29_AllocatorDestroyRangeReverseINS_9allocatorIdEEPdEEEC2B8ne200100ES5_, symObjAddr: 0x2C74, symBinAddr: 0x100006EC8, symSize: 0x30 }
  - { offset: 0x9854, size: 0x8, addend: 0x0, symName: __ZNSt3__129_AllocatorDestroyRangeReverseINS_9allocatorIdEEPdEC2B8ne200100ERS2_RS3_S6_, symObjAddr: 0x2CA4, symBinAddr: 0x100006EF8, symSize: 0x38 }
  - { offset: 0x98A9, size: 0x8, addend: 0x0, symName: __ZNSt3__19allocatorIdE9constructB8ne200100IdJRKdEEEvPT_DpOT0_, symObjAddr: 0x2CDC, symBinAddr: 0x100006F30, symSize: 0x28 }
  - { offset: 0x98FE, size: 0x8, addend: 0x0, symName: __ZNSt3__128__exception_guard_exceptionsINS_29_AllocatorDestroyRangeReverseINS_9allocatorIdEEPdEEED2B8ne200100Ev, symObjAddr: 0x2D04, symBinAddr: 0x100006F58, symSize: 0x50 }
  - { offset: 0x9926, size: 0x8, addend: 0x0, symName: __ZNKSt3__129_AllocatorDestroyRangeReverseINS_9allocatorIdEEPdEclB8ne200100Ev, symObjAddr: 0x2D54, symBinAddr: 0x100006FA8, symSize: 0x68 }
  - { offset: 0x994B, size: 0x8, addend: 0x0, symName: __ZNSt3__116reverse_iteratorIPdEC1B8ne200100ES1_, symObjAddr: 0x2E2C, symBinAddr: 0x100007080, symSize: 0x34 }
  - { offset: 0x9981, size: 0x8, addend: 0x0, symName: __ZNSt3__116reverse_iteratorIPdEppB8ne200100Ev, symObjAddr: 0x2EC8, symBinAddr: 0x10000711C, symSize: 0x20 }
  - { offset: 0x99A5, size: 0x8, addend: 0x0, symName: __ZNKSt3__116reverse_iteratorIPdE4baseB8ne200100Ev, symObjAddr: 0x2EE8, symBinAddr: 0x10000713C, symSize: 0x18 }
  - { offset: 0x99CF, size: 0x8, addend: 0x0, symName: __ZNSt3__119__to_address_helperINS_16reverse_iteratorIPdEEvE6__callB8ne200100ERKS3_, symObjAddr: 0x2F00, symBinAddr: 0x100007154, symSize: 0x38 }
  - { offset: 0x99F1, size: 0x8, addend: 0x0, symName: __ZNKSt3__116reverse_iteratorIPdEptB8ne200100Ev, symObjAddr: 0x2F38, symBinAddr: 0x10000718C, symSize: 0x24 }
  - { offset: 0x9A15, size: 0x8, addend: 0x0, symName: __ZNKSt3__116reverse_iteratorIPdEdeB8ne200100Ev, symObjAddr: 0x2F5C, symBinAddr: 0x1000071B0, symSize: 0x28 }
  - { offset: 0x9A48, size: 0x8, addend: 0x0, symName: __ZNSt3__116reverse_iteratorIPdEC2B8ne200100ES1_, symObjAddr: 0x2F84, symBinAddr: 0x1000071D8, symSize: 0x28 }
  - { offset: 0x9A7F, size: 0x8, addend: 0x0, symName: __ZNSt3__118__unwrap_iter_implIPdLb1EE8__unwrapB8ne200100ES1_, symObjAddr: 0x2FAC, symBinAddr: 0x100007200, symSize: 0x24 }
  - { offset: 0x9AA2, size: 0x8, addend: 0x0, symName: __ZNSt3__118__unwrap_iter_implIPdLb1EE8__rewrapB8ne200100ES1_S1_, symObjAddr: 0x2FD0, symBinAddr: 0x100007224, symSize: 0x50 }
  - { offset: 0x9AD3, size: 0x8, addend: 0x0, symName: __ZNSt3__16vectorIdNS_9allocatorIdEEE21_ConstructTransactionD2B8ne200100Ev, symObjAddr: 0x3020, symBinAddr: 0x100007274, symSize: 0x20 }
  - { offset: 0x9AFC, size: 0x8, addend: 0x0, symName: __ZNSt3__128__exception_guard_exceptionsINS_6vectorIdNS_9allocatorIdEEE16__destroy_vectorEED2B8ne200100Ev, symObjAddr: 0x3040, symBinAddr: 0x100007294, symSize: 0x48 }
...
